target datalayout = "e-m:e-p270:32:32-p271:32:32-p272:64:64-i64:64-i128:128-f80:128-n8:16:32:64-S128"
target triple = "x86_64-pc-linux-gnu"

%"class.cv::Point_" = type { float, float }
%"struct.std::_Vector_base" = type { %"struct.std::_Vector_base<cv::Point_<float>, std::allocator<cv::Point_<float>>>::_Vector_impl" }
%"struct.std::_Vector_base<cv::Point_<float>, std::allocator<cv::Point_<float>>>::_Vector_impl" = type { %"struct.std::_Vector_base<cv::Point_<float>, std::allocator<cv::Point_<float>>>::_Vector_impl_data" }
%"struct.std::_Vector_base<cv::Point_<float>, std::allocator<cv::Point_<float>>>::_Vector_impl_data" = type { ptr, ptr, ptr }
%"class.std::vector" = type { %"struct.std::_Vector_base" }
%"class.cv::Size_.37" = type { float, float }
%"struct.cv::CirclesGridFinderParameters" = type { %"class.cv::Size_.37", float, i32, i32, i32, float, float, float, float, float, float, float, float, i32, float, float }
%class.CirclesGridFinder = type <{ %"class.std::vector", %"class.std::vector.38", %"class.std::vector.38", ptr, ptr, %"class.cv::Size_.43", %"struct.cv::CirclesGridFinderParameters", i8, [3 x i8] }>
%"class.std::vector.38" = type { %"struct.std::_Vector_base.39" }
%"struct.std::_Vector_base.39" = type { %"struct.std::_Vector_base<std::vector<unsigned long>, std::allocator<std::vector<unsigned long>>>::_Vector_impl" }
%"struct.std::_Vector_base<std::vector<unsigned long>, std::allocator<std::vector<unsigned long>>>::_Vector_impl" = type { %"struct.std::_Vector_base<std::vector<unsigned long>, std::allocator<std::vector<unsigned long>>>::_Vector_impl_data" }
%"struct.std::_Vector_base<std::vector<unsigned long>, std::allocator<std::vector<unsigned long>>>::_Vector_impl_data" = type { ptr, ptr, ptr }
%"class.cv::Size_.43" = type { i64, i64 }

; Function Attrs: mustprogress nounwind uwtable
define linkonce_odr hidden void @_ZN2cv6Point_IfEC2Eff(ptr noundef nonnull align 4 dereferenceable(8) %0, float noundef %1, float noundef %2) unnamed_addr #5 comdat align 2 {
  %4 = alloca ptr, align 8
  %5 = alloca float, align 4
  %6 = alloca float, align 4
  store ptr %0, ptr %4, align 8
  store float %1, ptr %5, align 4
  store float %2, ptr %6, align 4
  %7 = load ptr, ptr %4, align 8
  %8 = getelementptr inbounds %"class.cv::Point_", ptr %7, i32 0, i32 0
  %9 = load float, ptr %5, align 4
  store float %9, ptr %8, align 4
  %10 = getelementptr inbounds %"class.cv::Point_", ptr %7, i32 0, i32 1
  %11 = load float, ptr %6, align 4
  store float %11, ptr %10, align 4
  ret void
}

; Function Attrs: mustprogress nounwind uwtable
define internal noundef float @_ZN2cvL13saturate_castIfEET_f(float noundef %0) #5 {
  %2 = alloca float, align 4
  store float %0, ptr %2, align 4
  %3 = load float, ptr %2, align 4
  ret float %3
}

; Function Attrs: mustprogress nounwind uwtable
define internal noundef double @_ZN2cvL4normIfEEdRKNS_6Point_IT_EE(ptr noundef nonnull align 4 dereferenceable(8) %0) #5 {
  %2 = alloca ptr, align 8
  store ptr %0, ptr %2, align 8
  %3 = load ptr, ptr %2, align 8
  %4 = getelementptr inbounds %"class.cv::Point_", ptr %3, i32 0, i32 0
  %5 = load float, ptr %4, align 4
  %6 = fpext float %5 to double
  %7 = load ptr, ptr %2, align 8
  %8 = getelementptr inbounds %"class.cv::Point_", ptr %7, i32 0, i32 0
  %9 = load float, ptr %8, align 4
  %10 = fpext float %9 to double
  %11 = load ptr, ptr %2, align 8
  %12 = getelementptr inbounds %"class.cv::Point_", ptr %11, i32 0, i32 1
  %13 = load float, ptr %12, align 4
  %14 = fpext float %13 to double
  %15 = load ptr, ptr %2, align 8
  %16 = getelementptr inbounds %"class.cv::Point_", ptr %15, i32 0, i32 1
  %17 = load float, ptr %16, align 4
  %18 = fpext float %17 to double
  %19 = fmul double %14, %18
  %20 = call double @llvm.fmuladd.f64(double %6, double %10, double %19)
  %21 = call double @sqrt(double noundef %20) #3
  ret double %21
}

; Function Attrs: mustprogress uwtable
define internal <2 x float> @_ZN2cvmiIfEENS_6Point_IT_EERKS3_S5_(ptr noundef nonnull align 4 dereferenceable(8) %0, ptr noundef nonnull align 4 dereferenceable(8) %1) #4 {
  %3 = alloca %"class.cv::Point_", align 4
  %4 = alloca ptr, align 8
  %5 = alloca ptr, align 8
  store ptr %0, ptr %4, align 8
  store ptr %1, ptr %5, align 8
  %6 = load ptr, ptr %4, align 8
  %7 = getelementptr inbounds %"class.cv::Point_", ptr %6, i32 0, i32 0
  %8 = load float, ptr %7, align 4
  %9 = load ptr, ptr %5, align 8
  %10 = getelementptr inbounds %"class.cv::Point_", ptr %9, i32 0, i32 0
  %11 = load float, ptr %10, align 4
  %12 = fsub float %8, %11
  %13 = call noundef float @_ZN2cvL13saturate_castIfEET_f(float noundef %12)
  %14 = load ptr, ptr %4, align 8
  %15 = getelementptr inbounds %"class.cv::Point_", ptr %14, i32 0, i32 1
  %16 = load float, ptr %15, align 4
  %17 = load ptr, ptr %5, align 8
  %18 = getelementptr inbounds %"class.cv::Point_", ptr %17, i32 0, i32 1
  %19 = load float, ptr %18, align 4
  %20 = fsub float %16, %19
  %21 = call noundef float @_ZN2cvL13saturate_castIfEET_f(float noundef %20)
  call void @_ZN2cv6Point_IfEC2Eff(ptr noundef nonnull align 4 dereferenceable(8) %3, float noundef %13, float noundef %21)
  %22 = load <2 x float>, ptr %3, align 4
  ret <2 x float> %22
}

; Function Attrs: mustprogress nounwind uwtable
define linkonce_odr hidden noundef nonnull align 4 dereferenceable(8) ptr @_ZNKSt6vectorIN2cv6Point_IfEESaIS2_EEixEm(ptr noundef nonnull align 8 dereferenceable(24) %0, i64 noundef %1) #5 comdat align 2 {
  %3 = alloca ptr, align 8
  %4 = alloca i64, align 8
  store ptr %0, ptr %3, align 8
  store i64 %1, ptr %4, align 8
  %5 = load ptr, ptr %3, align 8
  %6 = getelementptr inbounds %"struct.std::_Vector_base", ptr %5, i32 0, i32 0
  %7 = getelementptr inbounds %"struct.std::_Vector_base<cv::Point_<float>, std::allocator<cv::Point_<float>>>::_Vector_impl_data", ptr %6, i32 0, i32 0
  %8 = load ptr, ptr %7, align 8
  %9 = load i64, ptr %4, align 8
  %10 = getelementptr inbounds %"class.cv::Point_", ptr %8, i64 %9
  ret ptr %10
}

; Function Attrs: mustprogress nounwind uwtable
define linkonce_odr hidden noundef i64 @_ZNKSt6vectorIN2cv6Point_IfEESaIS2_EE4sizeEv(ptr noundef nonnull align 8 dereferenceable(24) %0) #5 comdat align 2 {
  %2 = alloca ptr, align 8
  store ptr %0, ptr %2, align 8
  %3 = load ptr, ptr %2, align 8
  %4 = getelementptr inbounds %"struct.std::_Vector_base", ptr %3, i32 0, i32 0
  %5 = getelementptr inbounds %"struct.std::_Vector_base<cv::Point_<float>, std::allocator<cv::Point_<float>>>::_Vector_impl_data", ptr %4, i32 0, i32 1
  %6 = load ptr, ptr %5, align 8
  %7 = getelementptr inbounds %"struct.std::_Vector_base", ptr %3, i32 0, i32 0
  %8 = getelementptr inbounds %"struct.std::_Vector_base<cv::Point_<float>, std::allocator<cv::Point_<float>>>::_Vector_impl_data", ptr %7, i32 0, i32 0
  %9 = load ptr, ptr %8, align 8
  %10 = ptrtoint ptr %6 to i64
  %11 = ptrtoint ptr %9 to i64
  %12 = sub i64 %10, %11
  %13 = sdiv exact i64 %12, 8
  ret i64 %13
}

; Function Attrs: mustprogress nounwind uwtable
define linkonce_odr hidden noundef double @_ZNSt14numeric_limitsIdE3maxEv() #5 comdat align 2 {
  ret double 0x7FEFFFFFFFFFFFFF
}

; Function Attrs: mustprogress uwtable
define hidden noundef i64 @_ZNK17CirclesGridFinder19findNearestKeypointEN2cv6Point_IfEE(ptr noundef nonnull align 8 dereferenceable(173) %0, <2 x float> %1) #4 align 2 {
  %3 = alloca %"class.cv::Point_", align 4
  %4 = alloca ptr, align 8
  %5 = alloca i64, align 8
  %6 = alloca double, align 8
  %7 = alloca i64, align 8
  %8 = alloca double, align 8
  %9 = alloca %"class.cv::Point_", align 4
  store <2 x float> %1, ptr %3, align 4
  store ptr %0, ptr %4, align 8
  %10 = load ptr, ptr %4, align 8
  store i64 0, ptr %5, align 8
  %11 = call noundef double @_ZNSt14numeric_limitsIdE3maxEv() #3
  store double %11, ptr %6, align 8
  store i64 0, ptr %7, align 8
  br label %12

12:                                               ; preds = %30, %2
  %13 = load i64, ptr %7, align 8
  %14 = getelementptr inbounds %class.CirclesGridFinder, ptr %10, i32 0, i32 0
  %15 = call noundef i64 @_ZNKSt6vectorIN2cv6Point_IfEESaIS2_EE4sizeEv(ptr noundef nonnull align 8 dereferenceable(24) %14) #3
  %16 = icmp ult i64 %13, %15
  br i1 %16, label %17, label %33

17:                                               ; preds = %12
  %18 = getelementptr inbounds %class.CirclesGridFinder, ptr %10, i32 0, i32 0
  %19 = load i64, ptr %7, align 8
  %20 = call noundef nonnull align 4 dereferenceable(8) ptr @_ZNKSt6vectorIN2cv6Point_IfEESaIS2_EEixEm(ptr noundef nonnull align 8 dereferenceable(24) %18, i64 noundef %19) #3
  %21 = call <2 x float> @_ZN2cvmiIfEENS_6Point_IT_EERKS3_S5_(ptr noundef nonnull align 4 dereferenceable(8) %3, ptr noundef nonnull align 4 dereferenceable(8) %20)
  store <2 x float> %21, ptr %9, align 4
  %22 = call noundef double @_ZN2cvL4normIfEEdRKNS_6Point_IT_EE(ptr noundef nonnull align 4 dereferenceable(8) %9)
  store double %22, ptr %8, align 8
  %23 = load double, ptr %8, align 8
  %24 = load double, ptr %6, align 8
  %25 = fcmp olt double %23, %24
  br i1 %25, label %26, label %29

26:                                               ; preds = %17
  %27 = load double, ptr %8, align 8
  store double %27, ptr %6, align 8
  %28 = load i64, ptr %7, align 8
  store i64 %28, ptr %5, align 8
  br label %29

29:                                               ; preds = %26, %17
  br label %30

30:                                               ; preds = %29
  %31 = load i64, ptr %7, align 8
  %32 = add i64 %31, 1
  store i64 %32, ptr %7, align 8
  br label %12, !llvm.loop !63

33:                                               ; preds = %12
  %34 = load i64, ptr %5, align 8
  ret i64 %34
}