; Function Attrs: mustprogress nofree norecurse nosync nounwind willreturn memory(read, inaccessiblemem: none) uwtable
define hidden noundef i64 @_ZNK17CirclesGridFinder19findNearestKeypointEN2cv6Point_IfEE(ptr nocapture noundef nonnull readonly align 8 dereferenceable(173) %0, <2 x float> %1) local_unnamed_addr #16 align 2 {
  %3 = getelementptr inbounds i8, ptr %0, i64 8
  %4 = load ptr, ptr %3, align 8
  %5 = load ptr, ptr %0, align 8
  %.not = icmp eq ptr %4, %5
  br i1 %.not, label %._crit_edge, label %.lr.ph

.lr.ph:                                           ; preds = %2
  %6 = ptrtoint ptr %4 to i64
  %7 = ptrtoint ptr %5 to i64
  %8 = sub i64 %6, %7
  %9 = ashr exact i64 %8, 3
  %.sroa.017.0.vec.extract = extractelement <2 x float> %1, i64 0
  %.sroa.017.4.vec.extract = extractelement <2 x float> %1, i64 1
  %umax = tail call i64 @llvm.umax.i64(i64 %9, i64 1)
  br label %10

10:                                               ; preds = %.lr.ph, %10
  %.020 = phi i64 [ 0, %.lr.ph ], [ %.1, %10 ]
  %.0819 = phi i64 [ 0, %.lr.ph ], [ %20, %10 ]
  %.0918 = phi double [ 0x7FEFFFFFFFFFFFFF, %.lr.ph ], [ %.110, %10 ]
  %11 = getelementptr inbounds %"class.cv::Point_", ptr %5, i64 %.0819
  %.val13 = load float, ptr %11, align 4
  %12 = getelementptr i8, ptr %11, i64 4
  %.val14 = load float, ptr %12, align 4
  %13 = fsub float %.sroa.017.0.vec.extract, %.val13
  %14 = fsub float %.sroa.017.4.vec.extract, %.val14
  %15 = fpext float %13 to double
  %16 = fpext float %14 to double
  %17 = fmul double %16, %16
  %18 = tail call double @llvm.fmuladd.f64(double %15, double %15, double %17)
  %sqrt.i = tail call noundef double @llvm.sqrt.f64(double %18)
  %19 = fcmp olt double %sqrt.i, %.0918
  %.110 = select i1 %19, double %sqrt.i, double %.0918
  %.1 = select i1 %19, i64 %.0819, i64 %.020
  %20 = add nuw i64 %.0819, 1
  %exitcond.not = icmp eq i64 %20, %umax
  br i1 %exitcond.not, label %._crit_edge, label %10, !llvm.loop !235

._crit_edge:                                      ; preds = %10, %2
  %.0.lcssa = phi i64 [ 0, %2 ], [ %.1, %10 ]
  ret i64 %.0.lcssa
}